
sort:     file format elf32-littlemips


Disassembly of section .startup:

00000000 <_start>:
   0:	00000000 	nop
   4:	00000821 	move	$1,$0
   8:	00001021 	move	$2,$0
   c:	00001821 	move	$3,$0
  10:	00002021 	move	$4,$0
  14:	00002821 	move	$5,$0
  18:	00003021 	move	$6,$0
  1c:	00003821 	move	$7,$0
  20:	00004021 	move	$8,$0
  24:	00004821 	move	$9,$0
  28:	00005021 	move	$10,$0
  2c:	00005821 	move	$11,$0
  30:	00006021 	move	$12,$0
  34:	00006821 	move	$13,$0
  38:	00007021 	move	$14,$0
  3c:	00007821 	move	$15,$0
  40:	00008021 	move	$16,$0
  44:	00008821 	move	$17,$0
  48:	00009021 	move	$18,$0
  4c:	00009821 	move	$19,$0
  50:	0000a021 	move	$20,$0
  54:	0000a821 	move	$21,$0
  58:	0000b021 	move	$22,$0
  5c:	0000b821 	move	$23,$0
  60:	0000c021 	move	$24,$0
  64:	0000c821 	move	$25,$0
  68:	0000d021 	move	$26,$0
  6c:	0000d821 	move	$27,$0
  70:	0000f021 	move	$30,$0
  74:	0000f821 	move	$31,$0
  78:	3c1c0006 	lui	$28,0x6
  7c:	279c8010 	addiu	$28,$28,-32752
  80:	3c1d7fff 	lui	$29,0x7fff
  84:	37bdff00 	ori	$29,$29,0xff00
  88:	0800053e 	j	14f8 <main>
  8c:	00000000 	nop

Disassembly of section .text:

00000200 <output_buffer_put>:
     200:	8f820414 	lw	$2,1044($28)
     204:	3c070006 	lui	$7,0x6
     208:	24e78020 	addiu	$7,$7,-32736
     20c:	24430001 	addiu	$3,$2,1
     210:	28650400 	slti	$5,$3,1024
     214:	00471021 	addu	$2,$2,$7
     218:	af830414 	sw	$3,1044($28)
     21c:	14a00008 	bnez	$5,240 <output_buffer_put+0x40>
     220:	a0440000 	sb	$4,0($2)
     224:	24040001 	li	$4,1
     228:	00e02821 	move	$5,$7
     22c:	00603021 	move	$6,$3
     230:	24020fa4 	li	$2,4004
     234:	0000000c 	syscall
     238:	00401821 	move	$3,$2
     23c:	af800414 	sw	$0,1044($28)
     240:	03e00008 	jr	$31
     244:	00000000 	nop

00000248 <mylib_wait>:
     248:	27bdfff8 	addiu	$29,$29,-8
     24c:	00001021 	move	$2,$0
     250:	afa00000 	sw	$0,0($29)
     254:	24040028 	li	$4,40
     258:	8fa30000 	lw	$3,0($29)
     25c:	00000000 	nop
     260:	00621821 	addu	$3,$3,$2
     264:	24420001 	addiu	$2,$2,1
     268:	1444fffb 	bne	$2,$4,258 <mylib_wait+0x10>
     26c:	afa30000 	sw	$3,0($29)
     270:	03e00008 	jr	$31
     274:	27bd0008 	addiu	$29,$29,8

00000278 <mylib_display_dec>:
     278:	27bdfbe0 	addiu	$29,$29,-1056
     27c:	afbf041c 	sw	$31,1052($29)
     280:	afb20418 	sw	$18,1048($29)
     284:	afb10414 	sw	$17,1044($29)
     288:	04800018 	bltz	$4,2ec <mylib_display_dec+0x74>
     28c:	afb00410 	sw	$16,1040($29)
     290:	14800068 	bnez	$4,434 <mylib_display_dec+0x1bc>
     294:	24020030 	li	$2,48
     298:	afa20010 	sw	$2,16($29)
     29c:	24040030 	li	$4,48
     2a0:	00008021 	move	$16,$0
     2a4:	27a90010 	addiu	$9,$29,16
     2a8:	2610ffff 	addiu	$16,$16,-1
     2ac:	00108880 	sll	$17,$16,0x2
     2b0:	01318821 	addu	$17,$9,$17
     2b4:	080000b1 	j	2c4 <mylib_display_dec+0x4c>
     2b8:	2412ffff 	li	$18,-1
     2bc:	8e240000 	lw	$4,0($17)
     2c0:	2631fffc 	addiu	$17,$17,-4
     2c4:	0c000080 	jal	200 <output_buffer_put>
     2c8:	00000000 	nop
     2cc:	1612fffb 	bne	$16,$18,2bc <mylib_display_dec+0x44>
     2d0:	2610ffff 	addiu	$16,$16,-1
     2d4:	8fbf041c 	lw	$31,1052($29)
     2d8:	8fb20418 	lw	$18,1048($29)
     2dc:	8fb10414 	lw	$17,1044($29)
     2e0:	8fb00410 	lw	$16,1040($29)
     2e4:	03e00008 	jr	$31
     2e8:	27bd0420 	addiu	$29,$29,1056
     2ec:	00042023 	negu	$4,$4
     2f0:	240b0001 	li	$11,1
     2f4:	3c066666 	lui	$6,0x6666
     2f8:	24c66667 	addiu	$6,$6,26215
     2fc:	00860018 	mult	$4,$6
     300:	00042fc3 	sra	$5,$4,0x1f
     304:	27a90010 	addiu	$9,$29,16
     308:	01201821 	move	$3,$9
     30c:	00004021 	move	$8,$0
     310:	240a0001 	li	$10,1
     314:	240c0002 	li	$12,2
     318:	240d0003 	li	$13,3
     31c:	240e0004 	li	$14,4
     320:	240f0005 	li	$15,5
     324:	24110006 	li	$17,6
     328:	00001010 	mfhi	$2
     32c:	00021083 	sra	$2,$2,0x2
     330:	00451023 	subu	$2,$2,$5
     334:	00023840 	sll	$7,$2,0x1
     338:	000210c0 	sll	$2,$2,0x3
     33c:	00e21021 	addu	$2,$7,$2
     340:	00821023 	subu	$2,$4,$2
     344:	10400031 	beqz	$2,40c <mylib_display_dec+0x194>
     348:	24120007 	li	$18,7
     34c:	104a0031 	beq	$2,$10,414 <mylib_display_dec+0x19c>
     350:	00000000 	nop
     354:	104c0031 	beq	$2,$12,41c <mylib_display_dec+0x1a4>
     358:	00000000 	nop
     35c:	104d0031 	beq	$2,$13,424 <mylib_display_dec+0x1ac>
     360:	00000000 	nop
     364:	104e0031 	beq	$2,$14,42c <mylib_display_dec+0x1b4>
     368:	00000000 	nop
     36c:	104f0033 	beq	$2,$15,43c <mylib_display_dec+0x1c4>
     370:	00000000 	nop
     374:	10510033 	beq	$2,$17,444 <mylib_display_dec+0x1cc>
     378:	00000000 	nop
     37c:	10520033 	beq	$2,$18,44c <mylib_display_dec+0x1d4>
     380:	00000000 	nop
     384:	38420008 	xori	$2,$2,0x8
     388:	0002102b 	sltu	$2,$0,$2
     38c:	24420038 	addiu	$2,$2,56
     390:	00860018 	mult	$4,$6
     394:	ac620000 	sw	$2,0($3)
     398:	25100001 	addiu	$16,$8,1
     39c:	00002010 	mfhi	$4
     3a0:	00042083 	sra	$4,$4,0x2
     3a4:	00852023 	subu	$4,$4,$5
     3a8:	1480000d 	bnez	$4,3e0 <mylib_display_dec+0x168>
     3ac:	24630004 	addiu	$3,$3,4
     3b0:	11600005 	beqz	$11,3c8 <mylib_display_dec+0x150>
     3b4:	00101080 	sll	$2,$16,0x2
     3b8:	01221021 	addu	$2,$9,$2
     3bc:	2403002d 	li	$3,45
     3c0:	ac430000 	sw	$3,0($2)
     3c4:	25100002 	addiu	$16,$8,2
     3c8:	2610ffff 	addiu	$16,$16,-1
     3cc:	00101080 	sll	$2,$16,0x2
     3d0:	01221021 	addu	$2,$9,$2
     3d4:	8c440000 	lw	$4,0($2)
     3d8:	080000ab 	j	2ac <mylib_display_dec+0x34>
     3dc:	2610ffff 	addiu	$16,$16,-1
     3e0:	00860018 	mult	$4,$6
     3e4:	00042fc3 	sra	$5,$4,0x1f
     3e8:	00001010 	mfhi	$2
     3ec:	00021083 	sra	$2,$2,0x2
     3f0:	00451023 	subu	$2,$2,$5
     3f4:	00023840 	sll	$7,$2,0x1
     3f8:	000210c0 	sll	$2,$2,0x3
     3fc:	00e21021 	addu	$2,$7,$2
     400:	00821023 	subu	$2,$4,$2
     404:	1440ffd1 	bnez	$2,34c <mylib_display_dec+0xd4>
     408:	02004021 	move	$8,$16
     40c:	080000e4 	j	390 <mylib_display_dec+0x118>
     410:	24020030 	li	$2,48
     414:	080000e4 	j	390 <mylib_display_dec+0x118>
     418:	24020031 	li	$2,49
     41c:	080000e4 	j	390 <mylib_display_dec+0x118>
     420:	24020032 	li	$2,50
     424:	080000e4 	j	390 <mylib_display_dec+0x118>
     428:	24020033 	li	$2,51
     42c:	080000e4 	j	390 <mylib_display_dec+0x118>
     430:	24020034 	li	$2,52
     434:	080000bd 	j	2f4 <mylib_display_dec+0x7c>
     438:	00005821 	move	$11,$0
     43c:	080000e4 	j	390 <mylib_display_dec+0x118>
     440:	24020035 	li	$2,53
     444:	080000e4 	j	390 <mylib_display_dec+0x118>
     448:	24020036 	li	$2,54
     44c:	080000e4 	j	390 <mylib_display_dec+0x118>
     450:	24020037 	li	$2,55

00000454 <mylib_display_hex>:
     454:	27bdffc0 	addiu	$29,$29,-64
     458:	27a20010 	addiu	$2,$29,16
     45c:	afb10038 	sw	$17,56($29)
     460:	afb00034 	sw	$16,52($29)
     464:	afbf003c 	sw	$31,60($29)
     468:	00408821 	move	$17,$2
     46c:	27a50030 	addiu	$5,$29,48
     470:	24060001 	li	$6,1
     474:	24070002 	li	$7,2
     478:	24080003 	li	$8,3
     47c:	24090004 	li	$9,4
     480:	240a0005 	li	$10,5
     484:	240b0006 	li	$11,6
     488:	240c0007 	li	$12,7
     48c:	240d0008 	li	$13,8
     490:	240e0009 	li	$14,9
     494:	240f000a 	li	$15,10
     498:	2410000b 	li	$16,11
     49c:	2418000c 	li	$24,12
     4a0:	2419000d 	li	$25,13
     4a4:	3083000f 	andi	$3,$4,0xf
     4a8:	1060001f 	beqz	$3,528 <mylib_display_hex+0xd4>
     4ac:	00000000 	nop
     4b0:	1066002e 	beq	$3,$6,56c <mylib_display_hex+0x118>
     4b4:	00000000 	nop
     4b8:	1067002e 	beq	$3,$7,574 <mylib_display_hex+0x120>
     4bc:	00000000 	nop
     4c0:	1068002e 	beq	$3,$8,57c <mylib_display_hex+0x128>
     4c4:	00000000 	nop
     4c8:	1069002e 	beq	$3,$9,584 <mylib_display_hex+0x130>
     4cc:	00000000 	nop
     4d0:	106a002e 	beq	$3,$10,58c <mylib_display_hex+0x138>
     4d4:	00000000 	nop
     4d8:	106b002e 	beq	$3,$11,594 <mylib_display_hex+0x140>
     4dc:	00000000 	nop
     4e0:	106c002e 	beq	$3,$12,59c <mylib_display_hex+0x148>
     4e4:	00000000 	nop
     4e8:	106d0030 	beq	$3,$13,5ac <mylib_display_hex+0x158>
     4ec:	00000000 	nop
     4f0:	106e0030 	beq	$3,$14,5b4 <mylib_display_hex+0x160>
     4f4:	00000000 	nop
     4f8:	106f002a 	beq	$3,$15,5a4 <mylib_display_hex+0x150>
     4fc:	00000000 	nop
     500:	1070002e 	beq	$3,$16,5bc <mylib_display_hex+0x168>
     504:	00000000 	nop
     508:	1078002e 	beq	$3,$24,5c4 <mylib_display_hex+0x170>
     50c:	00000000 	nop
     510:	1079002e 	beq	$3,$25,5cc <mylib_display_hex+0x178>
     514:	00000000 	nop
     518:	3863000e 	xori	$3,$3,0xe
     51c:	0003182b 	sltu	$3,$0,$3
     520:	0800014b 	j	52c <mylib_display_hex+0xd8>
     524:	24630065 	addiu	$3,$3,101
     528:	24030030 	li	$3,48
     52c:	ac430000 	sw	$3,0($2)
     530:	24420004 	addiu	$2,$2,4
     534:	1445ffdb 	bne	$2,$5,4a4 <mylib_display_hex+0x50>
     538:	00042103 	sra	$4,$4,0x4
     53c:	27b0002c 	addiu	$16,$29,44
     540:	2631fffc 	addiu	$17,$17,-4
     544:	8e040000 	lw	$4,0($16)
     548:	0c000080 	jal	200 <output_buffer_put>
     54c:	2610fffc 	addiu	$16,$16,-4
     550:	1611fffc 	bne	$16,$17,544 <mylib_display_hex+0xf0>
     554:	00000000 	nop
     558:	8fbf003c 	lw	$31,60($29)
     55c:	8fb10038 	lw	$17,56($29)
     560:	8fb00034 	lw	$16,52($29)
     564:	03e00008 	jr	$31
     568:	27bd0040 	addiu	$29,$29,64
     56c:	0800014b 	j	52c <mylib_display_hex+0xd8>
     570:	24030031 	li	$3,49
     574:	0800014b 	j	52c <mylib_display_hex+0xd8>
     578:	24030032 	li	$3,50
     57c:	0800014b 	j	52c <mylib_display_hex+0xd8>
     580:	24030033 	li	$3,51
     584:	0800014b 	j	52c <mylib_display_hex+0xd8>
     588:	24030034 	li	$3,52
     58c:	0800014b 	j	52c <mylib_display_hex+0xd8>
     590:	24030035 	li	$3,53
     594:	0800014b 	j	52c <mylib_display_hex+0xd8>
     598:	24030036 	li	$3,54
     59c:	0800014b 	j	52c <mylib_display_hex+0xd8>
     5a0:	24030037 	li	$3,55
     5a4:	0800014b 	j	52c <mylib_display_hex+0xd8>
     5a8:	24030061 	li	$3,97
     5ac:	0800014b 	j	52c <mylib_display_hex+0xd8>
     5b0:	24030038 	li	$3,56
     5b4:	0800014b 	j	52c <mylib_display_hex+0xd8>
     5b8:	24030039 	li	$3,57
     5bc:	0800014b 	j	52c <mylib_display_hex+0xd8>
     5c0:	24030062 	li	$3,98
     5c4:	0800014b 	j	52c <mylib_display_hex+0xd8>
     5c8:	24030063 	li	$3,99
     5cc:	0800014b 	j	52c <mylib_display_hex+0xd8>
     5d0:	24030064 	li	$3,100

000005d4 <mylib_display_char>:
     5d4:	08000080 	j	200 <output_buffer_put>
     5d8:	00000000 	nop

000005dc <mylib_display_newline>:
     5dc:	27bdffe8 	addiu	$29,$29,-24
     5e0:	afbf0014 	sw	$31,20($29)
     5e4:	0c000080 	jal	200 <output_buffer_put>
     5e8:	2404000a 	li	$4,10
     5ec:	8fbf0014 	lw	$31,20($29)
     5f0:	2404000d 	li	$4,13
     5f4:	08000080 	j	200 <output_buffer_put>
     5f8:	27bd0018 	addiu	$29,$29,24

000005fc <mylib_flush>:
     5fc:	3c030006 	lui	$3,0x6
     600:	8f870414 	lw	$7,1044($28)
     604:	24638020 	addiu	$3,$3,-32736
     608:	24040001 	li	$4,1
     60c:	00602821 	move	$5,$3
     610:	00e03021 	move	$6,$7
     614:	24020fa4 	li	$2,4004
     618:	0000000c 	syscall
     61c:	00401821 	move	$3,$2
     620:	03e00008 	jr	$31
     624:	af800414 	sw	$0,1044($28)

00000628 <mylib_finalize>:
     628:	27bdffe8 	addiu	$29,$29,-24
     62c:	afbf0014 	sw	$31,20($29)
     630:	0c000080 	jal	200 <output_buffer_put>
     634:	2404000a 	li	$4,10
     638:	0c000080 	jal	200 <output_buffer_put>
     63c:	2404000d 	li	$4,13
     640:	0c000080 	jal	200 <output_buffer_put>
     644:	24040045 	li	$4,69
     648:	0c000080 	jal	200 <output_buffer_put>
     64c:	2404004e 	li	$4,78
     650:	0c000080 	jal	200 <output_buffer_put>
     654:	24040044 	li	$4,68
     658:	0c000080 	jal	200 <output_buffer_put>
     65c:	2404000a 	li	$4,10
     660:	0c000080 	jal	200 <output_buffer_put>
     664:	2404000d 	li	$4,13
     668:	3c030006 	lui	$3,0x6
     66c:	8f870414 	lw	$7,1044($28)
     670:	24638020 	addiu	$3,$3,-32736
     674:	24040001 	li	$4,1
     678:	00602821 	move	$5,$3
     67c:	00e03021 	move	$6,$7
     680:	24020fa4 	li	$2,4004
     684:	0000000c 	syscall
     688:	00401821 	move	$3,$2
     68c:	af800414 	sw	$0,1044($28)
     690:	24040000 	li	$4,0
     694:	24020fa1 	li	$2,4001
     698:	0000000c 	syscall
     69c:	8fbf0014 	lw	$31,20($29)
     6a0:	00000000 	nop
     6a4:	03e00008 	jr	$31
     6a8:	27bd0018 	addiu	$29,$29,24

000006ac <simd128_load>:
     6ac:	8ca20000 	lw	$2,0($5)
     6b0:	00000000 	nop
     6b4:	ac820000 	sw	$2,0($4)
     6b8:	8ca20004 	lw	$2,4($5)
     6bc:	00000000 	nop
     6c0:	ac820004 	sw	$2,4($4)
     6c4:	8ca20008 	lw	$2,8($5)
     6c8:	00000000 	nop
     6cc:	ac820008 	sw	$2,8($4)
     6d0:	8ca2000c 	lw	$2,12($5)
     6d4:	03e00008 	jr	$31
     6d8:	ac82000c 	sw	$2,12($4)

000006dc <simd128_store>:
     6dc:	8c820000 	lw	$2,0($4)
     6e0:	00000000 	nop
     6e4:	aca20000 	sw	$2,0($5)
     6e8:	8c820004 	lw	$2,4($4)
     6ec:	00000000 	nop
     6f0:	aca20004 	sw	$2,4($5)
     6f4:	8c820008 	lw	$2,8($4)
     6f8:	00000000 	nop
     6fc:	aca20008 	sw	$2,8($5)
     700:	8c82000c 	lw	$2,12($4)
     704:	03e00008 	jr	$31
     708:	aca2000c 	sw	$2,12($5)

0000070c <simd128_shift_left_word>:
     70c:	8ca20008 	lw	$2,8($5)
     710:	00000000 	nop
     714:	ac82000c 	sw	$2,12($4)
     718:	8ca20004 	lw	$2,4($5)
     71c:	00000000 	nop
     720:	ac820008 	sw	$2,8($4)
     724:	8ca20000 	lw	$2,0($5)
     728:	ac860000 	sw	$6,0($4)
     72c:	03e00008 	jr	$31
     730:	ac820004 	sw	$2,4($4)

00000734 <simd128_shift_right_word>:
     734:	8ca20004 	lw	$2,4($5)
     738:	00000000 	nop
     73c:	ac820000 	sw	$2,0($4)
     740:	8ca20008 	lw	$2,8($5)
     744:	00000000 	nop
     748:	ac820004 	sw	$2,4($4)
     74c:	8ca2000c 	lw	$2,12($5)
     750:	ac86000c 	sw	$6,12($4)
     754:	03e00008 	jr	$31
     758:	ac820008 	sw	$2,8($4)

0000075c <simd128_shift_left_logical>:
     75c:	8ca20000 	lw	$2,0($5)
     760:	00000000 	nop
     764:	00c21004 	sllv	$2,$2,$6
     768:	ac820000 	sw	$2,0($4)
     76c:	8ca20004 	lw	$2,4($5)
     770:	00000000 	nop
     774:	00c21004 	sllv	$2,$2,$6
     778:	ac820004 	sw	$2,4($4)
     77c:	8ca20008 	lw	$2,8($5)
     780:	00000000 	nop
     784:	00c21004 	sllv	$2,$2,$6
     788:	ac820008 	sw	$2,8($4)
     78c:	8ca2000c 	lw	$2,12($5)
     790:	00000000 	nop
     794:	00c23004 	sllv	$6,$2,$6
     798:	03e00008 	jr	$31
     79c:	ac86000c 	sw	$6,12($4)

000007a0 <simd128_shift_right_logical>:
     7a0:	8ca20000 	lw	$2,0($5)
     7a4:	00000000 	nop
     7a8:	00c21006 	srlv	$2,$2,$6
     7ac:	ac820000 	sw	$2,0($4)
     7b0:	8ca20004 	lw	$2,4($5)
     7b4:	00000000 	nop
     7b8:	00c21006 	srlv	$2,$2,$6
     7bc:	ac820004 	sw	$2,4($4)
     7c0:	8ca20008 	lw	$2,8($5)
     7c4:	00000000 	nop
     7c8:	00c21006 	srlv	$2,$2,$6
     7cc:	ac820008 	sw	$2,8($4)
     7d0:	8ca2000c 	lw	$2,12($5)
     7d4:	00000000 	nop
     7d8:	00c23006 	srlv	$6,$2,$6
     7dc:	03e00008 	jr	$31
     7e0:	ac86000c 	sw	$6,12($4)

000007e4 <simd128_shift_left_arithmetic>:
     7e4:	8ca20000 	lw	$2,0($5)
     7e8:	00000000 	nop
     7ec:	00c21004 	sllv	$2,$2,$6
     7f0:	ac820000 	sw	$2,0($4)
     7f4:	8ca20004 	lw	$2,4($5)
     7f8:	00000000 	nop
     7fc:	00c21004 	sllv	$2,$2,$6
     800:	ac820004 	sw	$2,4($4)
     804:	8ca20008 	lw	$2,8($5)
     808:	00000000 	nop
     80c:	00c21004 	sllv	$2,$2,$6
     810:	ac820008 	sw	$2,8($4)
     814:	8ca2000c 	lw	$2,12($5)
     818:	00000000 	nop
     81c:	00c23004 	sllv	$6,$2,$6
     820:	03e00008 	jr	$31
     824:	ac86000c 	sw	$6,12($4)

00000828 <simd128_shift_right_arithmetic>:
     828:	8ca20000 	lw	$2,0($5)
     82c:	00000000 	nop
     830:	00c21007 	srav	$2,$2,$6
     834:	ac820000 	sw	$2,0($4)
     838:	8ca20004 	lw	$2,4($5)
     83c:	00000000 	nop
     840:	00c21007 	srav	$2,$2,$6
     844:	ac820004 	sw	$2,4($4)
     848:	8ca20008 	lw	$2,8($5)
     84c:	00000000 	nop
     850:	00c21007 	srav	$2,$2,$6
     854:	ac820008 	sw	$2,8($4)
     858:	8ca2000c 	lw	$2,12($5)
     85c:	00000000 	nop
     860:	00c23007 	srav	$6,$2,$6
     864:	03e00008 	jr	$31
     868:	ac86000c 	sw	$6,12($4)

0000086c <simd128_move>:
     86c:	8ca20000 	lw	$2,0($5)
     870:	00000000 	nop
     874:	ac820000 	sw	$2,0($4)
     878:	8ca20004 	lw	$2,4($5)
     87c:	00000000 	nop
     880:	ac820004 	sw	$2,4($4)
     884:	8ca20008 	lw	$2,8($5)
     888:	00000000 	nop
     88c:	ac820008 	sw	$2,8($4)
     890:	8ca2000c 	lw	$2,12($5)
     894:	03e00008 	jr	$31
     898:	ac82000c 	sw	$2,12($4)

0000089c <simd128_add>:
     89c:	8ca30000 	lw	$3,0($5)
     8a0:	8cc20000 	lw	$2,0($6)
     8a4:	00000000 	nop
     8a8:	00621021 	addu	$2,$3,$2
     8ac:	ac820000 	sw	$2,0($4)
     8b0:	8ca30004 	lw	$3,4($5)
     8b4:	8cc20004 	lw	$2,4($6)
     8b8:	00000000 	nop
     8bc:	00621021 	addu	$2,$3,$2
     8c0:	ac820004 	sw	$2,4($4)
     8c4:	8ca30008 	lw	$3,8($5)
     8c8:	8cc20008 	lw	$2,8($6)
     8cc:	00000000 	nop
     8d0:	00621021 	addu	$2,$3,$2
     8d4:	ac820008 	sw	$2,8($4)
     8d8:	8ca3000c 	lw	$3,12($5)
     8dc:	8cc2000c 	lw	$2,12($6)
     8e0:	00000000 	nop
     8e4:	00621021 	addu	$2,$3,$2
     8e8:	03e00008 	jr	$31
     8ec:	ac82000c 	sw	$2,12($4)

000008f0 <simd128_add_scalar>:
     8f0:	8ca20000 	lw	$2,0($5)
     8f4:	00000000 	nop
     8f8:	00c21021 	addu	$2,$6,$2
     8fc:	ac820000 	sw	$2,0($4)
     900:	8ca20004 	lw	$2,4($5)
     904:	00000000 	nop
     908:	00c21021 	addu	$2,$6,$2
     90c:	ac820004 	sw	$2,4($4)
     910:	8ca20008 	lw	$2,8($5)
     914:	00000000 	nop
     918:	00c21021 	addu	$2,$6,$2
     91c:	ac820008 	sw	$2,8($4)
     920:	8ca2000c 	lw	$2,12($5)
     924:	00000000 	nop
     928:	00c23021 	addu	$6,$6,$2
     92c:	03e00008 	jr	$31
     930:	ac86000c 	sw	$6,12($4)

00000934 <simd128_sub>:
     934:	8ca30000 	lw	$3,0($5)
     938:	8cc20000 	lw	$2,0($6)
     93c:	00000000 	nop
     940:	00621023 	subu	$2,$3,$2
     944:	ac820000 	sw	$2,0($4)
     948:	8ca30004 	lw	$3,4($5)
     94c:	8cc20004 	lw	$2,4($6)
     950:	00000000 	nop
     954:	00621023 	subu	$2,$3,$2
     958:	ac820004 	sw	$2,4($4)
     95c:	8ca30008 	lw	$3,8($5)
     960:	8cc20008 	lw	$2,8($6)
     964:	00000000 	nop
     968:	00621023 	subu	$2,$3,$2
     96c:	ac820008 	sw	$2,8($4)
     970:	8ca3000c 	lw	$3,12($5)
     974:	8cc2000c 	lw	$2,12($6)
     978:	00000000 	nop
     97c:	00621023 	subu	$2,$3,$2
     980:	03e00008 	jr	$31
     984:	ac82000c 	sw	$2,12($4)

00000988 <simd128_sub_scalar>:
     988:	8ca20000 	lw	$2,0($5)
     98c:	00000000 	nop
     990:	00461023 	subu	$2,$2,$6
     994:	ac820000 	sw	$2,0($4)
     998:	8ca20004 	lw	$2,4($5)
     99c:	00000000 	nop
     9a0:	00461023 	subu	$2,$2,$6
     9a4:	ac820004 	sw	$2,4($4)
     9a8:	8ca20008 	lw	$2,8($5)
     9ac:	00000000 	nop
     9b0:	00461023 	subu	$2,$2,$6
     9b4:	ac820008 	sw	$2,8($4)
     9b8:	8ca2000c 	lw	$2,12($5)
     9bc:	00000000 	nop
     9c0:	00463023 	subu	$6,$2,$6
     9c4:	03e00008 	jr	$31
     9c8:	ac86000c 	sw	$6,12($4)

000009cc <simd128_mult>:
     9cc:	8cc30000 	lw	$3,0($6)
     9d0:	8ce20000 	lw	$2,0($7)
     9d4:	8ccb0004 	lw	$11,4($6)
     9d8:	8cea0004 	lw	$10,4($7)
     9dc:	00620018 	mult	$3,$2
     9e0:	8cc90008 	lw	$9,8($6)
     9e4:	8ce80008 	lw	$8,8($7)
     9e8:	8ccc000c 	lw	$12,12($6)
     9ec:	8ce6000c 	lw	$6,12($7)
     9f0:	00001012 	mflo	$2
     9f4:	00001810 	mfhi	$3
     9f8:	ac830000 	sw	$3,0($4)
     9fc:	00000000 	nop
     a00:	016a0018 	mult	$11,$10
     a04:	00005012 	mflo	$10
     a08:	00005810 	mfhi	$11
     a0c:	ac8b0004 	sw	$11,4($4)
     a10:	00000000 	nop
     a14:	01280018 	mult	$9,$8
     a18:	00004012 	mflo	$8
     a1c:	00004810 	mfhi	$9
     a20:	ac890008 	sw	$9,8($4)
     a24:	00000000 	nop
     a28:	01860018 	mult	$12,$6
     a2c:	00003012 	mflo	$6
     a30:	00003810 	mfhi	$7
     a34:	ac87000c 	sw	$7,12($4)
     a38:	aca20000 	sw	$2,0($5)
     a3c:	acaa0004 	sw	$10,4($5)
     a40:	aca80008 	sw	$8,8($5)
     a44:	03e00008 	jr	$31
     a48:	aca6000c 	sw	$6,12($5)

00000a4c <simd128_mult_scalar>:
     a4c:	8cc20000 	lw	$2,0($6)
     a50:	8cca0004 	lw	$10,4($6)
     a54:	8cc80008 	lw	$8,8($6)
     a58:	00470018 	mult	$2,$7
     a5c:	8cc6000c 	lw	$6,12($6)
     a60:	00001012 	mflo	$2
     a64:	00001810 	mfhi	$3
     a68:	ac830000 	sw	$3,0($4)
     a6c:	00000000 	nop
     a70:	00ea0018 	mult	$7,$10
     a74:	00005012 	mflo	$10
     a78:	00005810 	mfhi	$11
     a7c:	ac8b0004 	sw	$11,4($4)
     a80:	00000000 	nop
     a84:	00e80018 	mult	$7,$8
     a88:	00004012 	mflo	$8
     a8c:	00004810 	mfhi	$9
     a90:	ac890008 	sw	$9,8($4)
     a94:	00000000 	nop
     a98:	00e60018 	mult	$7,$6
     a9c:	00003012 	mflo	$6
     aa0:	00003810 	mfhi	$7
     aa4:	ac87000c 	sw	$7,12($4)
     aa8:	aca20000 	sw	$2,0($5)
     aac:	acaa0004 	sw	$10,4($5)
     ab0:	aca80008 	sw	$8,8($5)
     ab4:	03e00008 	jr	$31
     ab8:	aca6000c 	sw	$6,12($5)

00000abc <simd128_and>:
     abc:	8ca30000 	lw	$3,0($5)
     ac0:	8cc20000 	lw	$2,0($6)
     ac4:	00000000 	nop
     ac8:	00621024 	and	$2,$3,$2
     acc:	ac820000 	sw	$2,0($4)
     ad0:	8ca30004 	lw	$3,4($5)
     ad4:	8cc20004 	lw	$2,4($6)
     ad8:	00000000 	nop
     adc:	00621024 	and	$2,$3,$2
     ae0:	ac820004 	sw	$2,4($4)
     ae4:	8ca30008 	lw	$3,8($5)
     ae8:	8cc20008 	lw	$2,8($6)
     aec:	00000000 	nop
     af0:	00621024 	and	$2,$3,$2
     af4:	ac820008 	sw	$2,8($4)
     af8:	8ca3000c 	lw	$3,12($5)
     afc:	8cc2000c 	lw	$2,12($6)
     b00:	00000000 	nop
     b04:	00621024 	and	$2,$3,$2
     b08:	03e00008 	jr	$31
     b0c:	ac82000c 	sw	$2,12($4)

00000b10 <simd128_xor>:
     b10:	8ca30000 	lw	$3,0($5)
     b14:	8cc20000 	lw	$2,0($6)
     b18:	00000000 	nop
     b1c:	00621026 	xor	$2,$3,$2
     b20:	ac820000 	sw	$2,0($4)
     b24:	8ca30004 	lw	$3,4($5)
     b28:	8cc20004 	lw	$2,4($6)
     b2c:	00000000 	nop
     b30:	00621026 	xor	$2,$3,$2
     b34:	ac820004 	sw	$2,4($4)
     b38:	8ca30008 	lw	$3,8($5)
     b3c:	8cc20008 	lw	$2,8($6)
     b40:	00000000 	nop
     b44:	00621026 	xor	$2,$3,$2
     b48:	ac820008 	sw	$2,8($4)
     b4c:	8ca3000c 	lw	$3,12($5)
     b50:	8cc2000c 	lw	$2,12($6)
     b54:	00000000 	nop
     b58:	00621026 	xor	$2,$3,$2
     b5c:	03e00008 	jr	$31
     b60:	ac82000c 	sw	$2,12($4)

00000b64 <simd128_or>:
     b64:	8ca30000 	lw	$3,0($5)
     b68:	8cc20000 	lw	$2,0($6)
     b6c:	00000000 	nop
     b70:	00621025 	or	$2,$3,$2
     b74:	ac820000 	sw	$2,0($4)
     b78:	8ca30004 	lw	$3,4($5)
     b7c:	8cc20004 	lw	$2,4($6)
     b80:	00000000 	nop
     b84:	00621025 	or	$2,$3,$2
     b88:	ac820004 	sw	$2,4($4)
     b8c:	8ca30008 	lw	$3,8($5)
     b90:	8cc20008 	lw	$2,8($6)
     b94:	00000000 	nop
     b98:	00621025 	or	$2,$3,$2
     b9c:	ac820008 	sw	$2,8($4)
     ba0:	8ca3000c 	lw	$3,12($5)
     ba4:	8cc2000c 	lw	$2,12($6)
     ba8:	00000000 	nop
     bac:	00621025 	or	$2,$3,$2
     bb0:	03e00008 	jr	$31
     bb4:	ac82000c 	sw	$2,12($4)

00000bb8 <simd128_nor>:
     bb8:	8ca30000 	lw	$3,0($5)
     bbc:	8cc20000 	lw	$2,0($6)
     bc0:	00000000 	nop
     bc4:	00621025 	or	$2,$3,$2
     bc8:	00021027 	nor	$2,$0,$2
     bcc:	ac820000 	sw	$2,0($4)
     bd0:	8ca30004 	lw	$3,4($5)
     bd4:	8cc20004 	lw	$2,4($6)
     bd8:	00000000 	nop
     bdc:	00621025 	or	$2,$3,$2
     be0:	00021027 	nor	$2,$0,$2
     be4:	ac820004 	sw	$2,4($4)
     be8:	8ca30008 	lw	$3,8($5)
     bec:	8cc20008 	lw	$2,8($6)
     bf0:	00000000 	nop
     bf4:	00621025 	or	$2,$3,$2
     bf8:	00021027 	nor	$2,$0,$2
     bfc:	ac820008 	sw	$2,8($4)
     c00:	8ca3000c 	lw	$3,12($5)
     c04:	8cc2000c 	lw	$2,12($6)
     c08:	00000000 	nop
     c0c:	00621025 	or	$2,$3,$2
     c10:	00021027 	nor	$2,$0,$2
     c14:	03e00008 	jr	$31
     c18:	ac82000c 	sw	$2,12($4)

00000c1c <radix_sort>:
     c1c:	8f820424 	lw	$2,1060($28)
     c20:	27bdffb0 	addiu	$29,$29,-80
     c24:	3c030001 	lui	$3,0x1
     c28:	afa20004 	sw	$2,4($29)
     c2c:	8f820410 	lw	$2,1040($28)
     c30:	8fa60004 	lw	$6,4($29)
     c34:	24630000 	addiu	$3,$3,0
     c38:	00021080 	sll	$2,$2,0x2
     c3c:	00621021 	addu	$2,$3,$2
     c40:	afa50054 	sw	$5,84($29)
     c44:	afbe004c 	sw	$30,76($29)
     c48:	afb70048 	sw	$23,72($29)
     c4c:	afb60044 	sw	$22,68($29)
     c50:	afb50040 	sw	$21,64($29)
     c54:	afb4003c 	sw	$20,60($29)
     c58:	afb30038 	sw	$19,56($29)
     c5c:	afb20034 	sw	$18,52($29)
     c60:	afb10030 	sw	$17,48($29)
     c64:	afb0002c 	sw	$16,44($29)
     c68:	afa40050 	sw	$4,80($29)
     c6c:	8c450000 	lw	$5,0($2)
     c70:	18c00216 	blez	$6,14cc <radix_sort+0x8b0>
     c74:	0000f021 	move	$30,$0
     c78:	8fa70054 	lw	$7,84($29)
     c7c:	afa40000 	sw	$4,0($29)
     c80:	00071880 	sll	$3,$7,0x2
     c84:	2463ffc0 	addiu	$3,$3,-64
     c88:	afa30010 	sw	$3,16($29)
     c8c:	8fa80010 	lw	$8,16($29)
     c90:	24e2ffff 	addiu	$2,$7,-1
     c94:	3c030005 	lui	$3,0x5
     c98:	00021102 	srl	$2,$2,0x4
     c9c:	00021180 	sll	$2,$2,0x6
     ca0:	24790020 	addiu	$25,$3,32
     ca4:	2503ffc0 	addiu	$3,$8,-64
     ca8:	24440040 	addiu	$4,$2,64
     cac:	00621823 	subu	$3,$3,$2
     cb0:	25090010 	addiu	$9,$8,16
     cb4:	25150020 	addiu	$21,$8,32
     cb8:	afa90018 	sw	$9,24($29)
     cbc:	afb50014 	sw	$21,20($29)
     cc0:	afa0000c 	sw	$0,12($29)
     cc4:	afa4001c 	sw	$4,28($29)
     cc8:	afa30020 	sw	$3,32($29)
     ccc:	00a01021 	move	$2,$5
     cd0:	3c060005 	lui	$6,0x5
     cd4:	3c050005 	lui	$5,0x5
     cd8:	3c040005 	lui	$4,0x5
     cdc:	3c030005 	lui	$3,0x5
     ce0:	24c60048 	addiu	$6,$6,72
     ce4:	24a50034 	addiu	$5,$5,52
     ce8:	2484002c 	addiu	$4,$4,44
     cec:	24630020 	addiu	$3,$3,32
     cf0:	ac600000 	sw	$0,0($3)
     cf4:	3c070006 	lui	$7,0x6
     cf8:	24630040 	addiu	$3,$3,64
     cfc:	aca0fff0 	sw	$0,-16($5)
     d00:	24840040 	addiu	$4,$4,64
     d04:	acc0ffe0 	sw	$0,-32($6)
     d08:	24e78020 	addiu	$7,$7,-32736
     d0c:	ac80ffc0 	sw	$0,-64($4)
     d10:	24c60040 	addiu	$6,$6,64
     d14:	ac60ffd0 	sw	$0,-48($3)
     d18:	aca00000 	sw	$0,0($5)
     d1c:	acc0ffb0 	sw	$0,-80($6)
     d20:	ac80ffd0 	sw	$0,-48($4)
     d24:	ac60ffe0 	sw	$0,-32($3)
     d28:	aca00010 	sw	$0,16($5)
     d2c:	acc0ffc0 	sw	$0,-64($6)
     d30:	ac80ffe0 	sw	$0,-32($4)
     d34:	24a50040 	addiu	$5,$5,64
     d38:	ac60fff0 	sw	$0,-16($3)
     d3c:	aca0ffe0 	sw	$0,-32($5)
     d40:	acc0ffd0 	sw	$0,-48($6)
     d44:	1467ffea 	bne	$3,$7,cf0 <radix_sort+0xd4>
     d48:	ac80fff0 	sw	$0,-16($4)
     d4c:	8fa80054 	lw	$8,84($29)
     d50:	00000000 	nop
     d54:	1900008d 	blez	$8,f8c <radix_sort+0x370>
     d58:	3c070005 	lui	$7,0x5
     d5c:	8fa30000 	lw	$3,0($29)
     d60:	8fa9001c 	lw	$9,28($29)
     d64:	2466000c 	addiu	$6,$3,12
     d68:	24650014 	addiu	$5,$3,20
     d6c:	24640028 	addiu	$4,$3,40
     d70:	0069c021 	addu	$24,$3,$9
     d74:	8c680000 	lw	$8,0($3)
     d78:	8ca7fff0 	lw	$7,-16($5)
     d7c:	8c97ffe0 	lw	$23,-32($4)
     d80:	03c84007 	srav	$8,$8,$30
     d84:	31081fff 	andi	$8,$8,0x1fff
     d88:	00084080 	sll	$8,$8,0x2
     d8c:	03284021 	addu	$8,$25,$8
     d90:	8d090000 	lw	$9,0($8)
     d94:	03c73807 	srav	$7,$7,$30
     d98:	30e71fff 	andi	$7,$7,0x1fff
     d9c:	25290001 	addiu	$9,$9,1
     da0:	00073880 	sll	$7,$7,0x2
     da4:	8cd60000 	lw	$22,0($6)
     da8:	8c750010 	lw	$21,16($3)
     dac:	8cb40000 	lw	$20,0($5)
     db0:	8c93fff0 	lw	$19,-16($4)
     db4:	8cd20010 	lw	$18,16($6)
     db8:	8c710020 	lw	$17,32($3)
     dbc:	8cb00010 	lw	$16,16($5)
     dc0:	8c8f0000 	lw	$15,0($4)
     dc4:	8cce0020 	lw	$14,32($6)
     dc8:	8c6d0030 	lw	$13,48($3)
     dcc:	8cac0020 	lw	$12,32($5)
     dd0:	8c8b0010 	lw	$11,16($4)
     dd4:	8cca0030 	lw	$10,48($6)
     dd8:	03273821 	addu	$7,$25,$7
     ddc:	ad090000 	sw	$9,0($8)
     de0:	8ce90000 	lw	$9,0($7)
     de4:	03d74007 	srav	$8,$23,$30
     de8:	31081fff 	andi	$8,$8,0x1fff
     dec:	25290001 	addiu	$9,$9,1
     df0:	00084080 	sll	$8,$8,0x2
     df4:	ace90000 	sw	$9,0($7)
     df8:	03284021 	addu	$8,$25,$8
     dfc:	8d090000 	lw	$9,0($8)
     e00:	03d63807 	srav	$7,$22,$30
     e04:	30e71fff 	andi	$7,$7,0x1fff
     e08:	25290001 	addiu	$9,$9,1
     e0c:	00073880 	sll	$7,$7,0x2
     e10:	ad090000 	sw	$9,0($8)
     e14:	03273821 	addu	$7,$25,$7
     e18:	8ce90000 	lw	$9,0($7)
     e1c:	03d54007 	srav	$8,$21,$30
     e20:	31081fff 	andi	$8,$8,0x1fff
     e24:	25290001 	addiu	$9,$9,1
     e28:	00084080 	sll	$8,$8,0x2
     e2c:	ace90000 	sw	$9,0($7)
     e30:	03284021 	addu	$8,$25,$8
     e34:	8d090000 	lw	$9,0($8)
     e38:	03d43807 	srav	$7,$20,$30
     e3c:	30e71fff 	andi	$7,$7,0x1fff
     e40:	25290001 	addiu	$9,$9,1
     e44:	00073880 	sll	$7,$7,0x2
     e48:	ad090000 	sw	$9,0($8)
     e4c:	03273821 	addu	$7,$25,$7
     e50:	8ce90000 	lw	$9,0($7)
     e54:	03d34007 	srav	$8,$19,$30
     e58:	31081fff 	andi	$8,$8,0x1fff
     e5c:	25290001 	addiu	$9,$9,1
     e60:	00084080 	sll	$8,$8,0x2
     e64:	ace90000 	sw	$9,0($7)
     e68:	03284021 	addu	$8,$25,$8
     e6c:	8d090000 	lw	$9,0($8)
     e70:	03d23807 	srav	$7,$18,$30
     e74:	30e71fff 	andi	$7,$7,0x1fff
     e78:	25290001 	addiu	$9,$9,1
     e7c:	00073880 	sll	$7,$7,0x2
     e80:	ad090000 	sw	$9,0($8)
     e84:	03273821 	addu	$7,$25,$7
     e88:	8ce90000 	lw	$9,0($7)
     e8c:	03d14007 	srav	$8,$17,$30
     e90:	31081fff 	andi	$8,$8,0x1fff
     e94:	25290001 	addiu	$9,$9,1
     e98:	00084080 	sll	$8,$8,0x2
     e9c:	ace90000 	sw	$9,0($7)
     ea0:	03284021 	addu	$8,$25,$8
     ea4:	8d090000 	lw	$9,0($8)
     ea8:	03d03807 	srav	$7,$16,$30
     eac:	30e71fff 	andi	$7,$7,0x1fff
     eb0:	00073880 	sll	$7,$7,0x2
     eb4:	03273821 	addu	$7,$25,$7
     eb8:	25290001 	addiu	$9,$9,1
     ebc:	ad090000 	sw	$9,0($8)
     ec0:	8ce90000 	lw	$9,0($7)
     ec4:	03cf4007 	srav	$8,$15,$30
     ec8:	31081fff 	andi	$8,$8,0x1fff
     ecc:	25290001 	addiu	$9,$9,1
     ed0:	00084080 	sll	$8,$8,0x2
     ed4:	ace90000 	sw	$9,0($7)
     ed8:	03284021 	addu	$8,$25,$8
     edc:	8d090000 	lw	$9,0($8)
     ee0:	03ce3807 	srav	$7,$14,$30
     ee4:	30e71fff 	andi	$7,$7,0x1fff
     ee8:	25290001 	addiu	$9,$9,1
     eec:	00073880 	sll	$7,$7,0x2
     ef0:	ad090000 	sw	$9,0($8)
     ef4:	03273821 	addu	$7,$25,$7
     ef8:	8ce90000 	lw	$9,0($7)
     efc:	03cd4007 	srav	$8,$13,$30
     f00:	31081fff 	andi	$8,$8,0x1fff
     f04:	25290001 	addiu	$9,$9,1
     f08:	00084080 	sll	$8,$8,0x2
     f0c:	ace90000 	sw	$9,0($7)
     f10:	03284021 	addu	$8,$25,$8
     f14:	8d090000 	lw	$9,0($8)
     f18:	03cc3807 	srav	$7,$12,$30
     f1c:	30e71fff 	andi	$7,$7,0x1fff
     f20:	25290001 	addiu	$9,$9,1
     f24:	00073880 	sll	$7,$7,0x2
     f28:	ad090000 	sw	$9,0($8)
     f2c:	03273821 	addu	$7,$25,$7
     f30:	8ce90000 	lw	$9,0($7)
     f34:	03cb4007 	srav	$8,$11,$30
     f38:	31081fff 	andi	$8,$8,0x1fff
     f3c:	25290001 	addiu	$9,$9,1
     f40:	00084080 	sll	$8,$8,0x2
     f44:	ace90000 	sw	$9,0($7)
     f48:	03284021 	addu	$8,$25,$8
     f4c:	8d090000 	lw	$9,0($8)
     f50:	03ca3807 	srav	$7,$10,$30
     f54:	30e71fff 	andi	$7,$7,0x1fff
     f58:	25290001 	addiu	$9,$9,1
     f5c:	00073880 	sll	$7,$7,0x2
     f60:	ad090000 	sw	$9,0($8)
     f64:	03273821 	addu	$7,$25,$7
     f68:	8ce80000 	lw	$8,0($7)
     f6c:	24630040 	addiu	$3,$3,64
     f70:	24c60040 	addiu	$6,$6,64
     f74:	25080001 	addiu	$8,$8,1
     f78:	ace80000 	sw	$8,0($7)
     f7c:	24a50040 	addiu	$5,$5,64
     f80:	1478ff7c 	bne	$3,$24,d74 <radix_sort+0x158>
     f84:	24840040 	addiu	$4,$4,64
     f88:	3c070005 	lui	$7,0x5
     f8c:	3c060005 	lui	$6,0x5
     f90:	3c050005 	lui	$5,0x5
     f94:	3c040005 	lui	$4,0x5
     f98:	24e70048 	addiu	$7,$7,72
     f9c:	24c60034 	addiu	$6,$6,52
     fa0:	24a5002c 	addiu	$5,$5,44
     fa4:	24840020 	addiu	$4,$4,32
     fa8:	00001821 	move	$3,$0
     fac:	8cf4ffe0 	lw	$20,-32($7)
     fb0:	8cf6fff0 	lw	$22,-16($7)
     fb4:	8caa0000 	lw	$10,0($5)
     fb8:	8ca90010 	lw	$9,16($5)
     fbc:	8cd0fff0 	lw	$16,-16($6)
     fc0:	8cd20000 	lw	$18,0($6)
     fc4:	8cf50000 	lw	$21,0($7)
     fc8:	8ca80020 	lw	$8,32($5)
     fcc:	8c8b0000 	lw	$11,0($4)
     fd0:	8c8e0010 	lw	$14,16($4)
     fd4:	8cd10010 	lw	$17,16($6)
     fd8:	8c8d0020 	lw	$13,32($4)
     fdc:	8cf30010 	lw	$19,16($7)
     fe0:	8cb70030 	lw	$23,48($5)
     fe4:	028a5021 	addu	$10,$20,$10
     fe8:	02c94821 	addu	$9,$22,$9
     fec:	8ccf0020 	lw	$15,32($6)
     ff0:	020a5021 	addu	$10,$16,$10
     ff4:	02494821 	addu	$9,$18,$9
     ff8:	02a84021 	addu	$8,$21,$8
     ffc:	8c8c0030 	lw	$12,48($4)
    1000:	016a5021 	addu	$10,$11,$10
    1004:	01c94821 	addu	$9,$14,$9
    1008:	02284021 	addu	$8,$17,$8
    100c:	0256b021 	addu	$22,$18,$22
    1010:	0235a821 	addu	$21,$17,$21
    1014:	01494821 	addu	$9,$10,$9
    1018:	0277b821 	addu	$23,$19,$23
    101c:	01a84021 	addu	$8,$13,$8
    1020:	0214a021 	addu	$20,$16,$20
    1024:	01d29021 	addu	$18,$14,$18
    1028:	01d6b021 	addu	$22,$14,$22
    102c:	01b18821 	addu	$17,$13,$17
    1030:	01b5a821 	addu	$21,$13,$21
    1034:	01094021 	addu	$8,$8,$9
    1038:	01f7c021 	addu	$24,$15,$23
    103c:	01f39821 	addu	$19,$15,$19
    1040:	01708021 	addu	$16,$11,$16
    1044:	0174a021 	addu	$20,$11,$20
    1048:	01ca7021 	addu	$14,$14,$10
    104c:	024a9021 	addu	$18,$18,$10
    1050:	02cab021 	addu	$22,$22,$10
    1054:	01a96821 	addu	$13,$13,$9
    1058:	02298821 	addu	$17,$17,$9
    105c:	02a9a821 	addu	$21,$21,$9
    1060:	006b5821 	addu	$11,$3,$11
    1064:	ac8b0000 	sw	$11,0($4)
    1068:	0075a821 	addu	$21,$3,$21
    106c:	24840040 	addiu	$4,$4,64
    1070:	0188b821 	addu	$23,$12,$8
    1074:	018f7821 	addu	$15,$12,$15
    1078:	01939821 	addu	$19,$12,$19
    107c:	00708021 	addu	$16,$3,$16
    1080:	01986021 	addu	$12,$12,$24
    1084:	0074a021 	addu	$20,$3,$20
    1088:	0069c021 	addu	$24,$3,$9
    108c:	006a5021 	addu	$10,$3,$10
    1090:	006e7021 	addu	$14,$3,$14
    1094:	00729021 	addu	$18,$3,$18
    1098:	0076b021 	addu	$22,$3,$22
    109c:	006d6821 	addu	$13,$3,$13
    10a0:	00718821 	addu	$17,$3,$17
    10a4:	acd0fff0 	sw	$16,-16($6)
    10a8:	00684821 	addu	$9,$3,$8
    10ac:	acf4ffe0 	sw	$20,-32($7)
    10b0:	01e87821 	addu	$15,$15,$8
    10b4:	acaa0000 	sw	$10,0($5)
    10b8:	02689821 	addu	$19,$19,$8
    10bc:	ac8effd0 	sw	$14,-48($4)
    10c0:	01886021 	addu	$12,$12,$8
    10c4:	acd20000 	sw	$18,0($6)
    10c8:	acf6fff0 	sw	$22,-16($7)
    10cc:	acb80010 	sw	$24,16($5)
    10d0:	ac8dffe0 	sw	$13,-32($4)
    10d4:	acd10010 	sw	$17,16($6)
    10d8:	acf50000 	sw	$21,0($7)
    10dc:	3c150006 	lui	$21,0x6
    10e0:	aca90020 	sw	$9,32($5)
    10e4:	0077b821 	addu	$23,$3,$23
    10e8:	006f7821 	addu	$15,$3,$15
    10ec:	00739821 	addu	$19,$3,$19
    10f0:	24a50040 	addiu	$5,$5,64
    10f4:	006c1821 	addu	$3,$3,$12
    10f8:	24e70040 	addiu	$7,$7,64
    10fc:	26b58020 	addiu	$21,$21,-32736
    1100:	ac97fff0 	sw	$23,-16($4)
    1104:	24c60040 	addiu	$6,$6,64
    1108:	accfffe0 	sw	$15,-32($6)
    110c:	acf3ffd0 	sw	$19,-48($7)
    1110:	1495ffa6 	bne	$4,$21,fac <radix_sort+0x390>
    1114:	aca3fff0 	sw	$3,-16($5)
    1118:	8fa30054 	lw	$3,84($29)
    111c:	00000000 	nop
    1120:	186000cc 	blez	$3,1454 <radix_sort+0x838>
    1124:	00000000 	nop
    1128:	8fa80000 	lw	$8,0($29)
    112c:	8fb50018 	lw	$21,24($29)
    1130:	8fa40014 	lw	$4,20($29)
    1134:	8fa90010 	lw	$9,16($29)
    1138:	01153021 	addu	$6,$8,$21
    113c:	24d80004 	addiu	$24,$6,4
    1140:	8fa60020 	lw	$6,32($29)
    1144:	01042821 	addu	$5,$8,$4
    1148:	01091821 	addu	$3,$8,$9
    114c:	01063021 	addu	$6,$8,$6
    1150:	2464000c 	addiu	$4,$3,12
    1154:	24a50008 	addiu	$5,$5,8
    1158:	afa60008 	sw	$6,8($29)
    115c:	8c940030 	lw	$20,48($4)
    1160:	8cb20010 	lw	$18,16($5)
    1164:	8c670000 	lw	$7,0($3)
    1168:	03d4a807 	srav	$21,$20,$30
    116c:	32b51fff 	andi	$21,$21,0x1fff
    1170:	0015a880 	sll	$21,$21,0x2
    1174:	0335a821 	addu	$21,$25,$21
    1178:	8eb60000 	lw	$22,0($21)
    117c:	8ca6ffe0 	lw	$6,-32($5)
    1180:	8c680010 	lw	$8,16($3)
    1184:	26d6ffff 	addiu	$22,$22,-1
    1188:	0016b880 	sll	$23,$22,0x2
    118c:	0057b821 	addu	$23,$2,$23
    1190:	afb70004 	sw	$23,4($29)
    1194:	8f090000 	lw	$9,0($24)
    1198:	8caafff0 	lw	$10,-16($5)
    119c:	8c8b0010 	lw	$11,16($4)
    11a0:	8c6c0020 	lw	$12,32($3)
    11a4:	8f0d0010 	lw	$13,16($24)
    11a8:	8cae0000 	lw	$14,0($5)
    11ac:	8f17fff0 	lw	$23,-16($24)
    11b0:	8c8f0020 	lw	$15,32($4)
    11b4:	8c700030 	lw	$16,48($3)
    11b8:	8f110020 	lw	$17,32($24)
    11bc:	afa70000 	sw	$7,0($29)
    11c0:	03d29807 	srav	$19,$18,$30
    11c4:	8c870000 	lw	$7,0($4)
    11c8:	aeb60000 	sw	$22,0($21)
    11cc:	8fb50004 	lw	$21,4($29)
    11d0:	32731fff 	andi	$19,$19,0x1fff
    11d4:	00139880 	sll	$19,$19,0x2
    11d8:	aeb40000 	sw	$20,0($21)
    11dc:	03339821 	addu	$19,$25,$19
    11e0:	8e740000 	lw	$20,0($19)
    11e4:	03d1b007 	srav	$22,$17,$30
    11e8:	32d61fff 	andi	$22,$22,0x1fff
    11ec:	2694ffff 	addiu	$20,$20,-1
    11f0:	0014a880 	sll	$21,$20,0x2
    11f4:	0055a821 	addu	$21,$2,$21
    11f8:	0016b080 	sll	$22,$22,0x2
    11fc:	ae740000 	sw	$20,0($19)
    1200:	0336b021 	addu	$22,$25,$22
    1204:	aeb20000 	sw	$18,0($21)
    1208:	8ed20000 	lw	$18,0($22)
    120c:	03d0a007 	srav	$20,$16,$30
    1210:	32941fff 	andi	$20,$20,0x1fff
    1214:	2652ffff 	addiu	$18,$18,-1
    1218:	00129880 	sll	$19,$18,0x2
    121c:	00539821 	addu	$19,$2,$19
    1220:	0014a080 	sll	$20,$20,0x2
    1224:	aed20000 	sw	$18,0($22)
    1228:	0334a021 	addu	$20,$25,$20
    122c:	ae710000 	sw	$17,0($19)
    1230:	8e920000 	lw	$18,0($20)
    1234:	03cf8807 	srav	$17,$15,$30
    1238:	32311fff 	andi	$17,$17,0x1fff
    123c:	2652ffff 	addiu	$18,$18,-1
    1240:	00129880 	sll	$19,$18,0x2
    1244:	00539821 	addu	$19,$2,$19
    1248:	00118880 	sll	$17,$17,0x2
    124c:	ae920000 	sw	$18,0($20)
    1250:	03318821 	addu	$17,$25,$17
    1254:	ae700000 	sw	$16,0($19)
    1258:	8e320000 	lw	$18,0($17)
    125c:	03ce8007 	srav	$16,$14,$30
    1260:	32101fff 	andi	$16,$16,0x1fff
    1264:	2652ffff 	addiu	$18,$18,-1
    1268:	00129880 	sll	$19,$18,0x2
    126c:	00108080 	sll	$16,$16,0x2
    1270:	03308021 	addu	$16,$25,$16
    1274:	00539821 	addu	$19,$2,$19
    1278:	ae320000 	sw	$18,0($17)
    127c:	ae6f0000 	sw	$15,0($19)
    1280:	8e110000 	lw	$17,0($16)
    1284:	03cd7807 	srav	$15,$13,$30
    1288:	31ef1fff 	andi	$15,$15,0x1fff
    128c:	2631ffff 	addiu	$17,$17,-1
    1290:	00119080 	sll	$18,$17,0x2
    1294:	000f7880 	sll	$15,$15,0x2
    1298:	00529021 	addu	$18,$2,$18
    129c:	ae110000 	sw	$17,0($16)
    12a0:	032f7821 	addu	$15,$25,$15
    12a4:	ae4e0000 	sw	$14,0($18)
    12a8:	8df00000 	lw	$16,0($15)
    12ac:	03cc7007 	srav	$14,$12,$30
    12b0:	31ce1fff 	andi	$14,$14,0x1fff
    12b4:	2610ffff 	addiu	$16,$16,-1
    12b8:	00108880 	sll	$17,$16,0x2
    12bc:	00518821 	addu	$17,$2,$17
    12c0:	000e7080 	sll	$14,$14,0x2
    12c4:	adf00000 	sw	$16,0($15)
    12c8:	032e7021 	addu	$14,$25,$14
    12cc:	ae2d0000 	sw	$13,0($17)
    12d0:	8dcf0000 	lw	$15,0($14)
    12d4:	03cb6807 	srav	$13,$11,$30
    12d8:	31ad1fff 	andi	$13,$13,0x1fff
    12dc:	25efffff 	addiu	$15,$15,-1
    12e0:	000f8080 	sll	$16,$15,0x2
    12e4:	00508021 	addu	$16,$2,$16
    12e8:	000d6880 	sll	$13,$13,0x2
    12ec:	adcf0000 	sw	$15,0($14)
    12f0:	032d6821 	addu	$13,$25,$13
    12f4:	ae0c0000 	sw	$12,0($16)
    12f8:	8dae0000 	lw	$14,0($13)
    12fc:	03ca6007 	srav	$12,$10,$30
    1300:	318c1fff 	andi	$12,$12,0x1fff
    1304:	25ceffff 	addiu	$14,$14,-1
    1308:	000e7880 	sll	$15,$14,0x2
    130c:	004f7821 	addu	$15,$2,$15
    1310:	000c6080 	sll	$12,$12,0x2
    1314:	adae0000 	sw	$14,0($13)
    1318:	032c6021 	addu	$12,$25,$12
    131c:	adeb0000 	sw	$11,0($15)
    1320:	8d8d0000 	lw	$13,0($12)
    1324:	03c95807 	srav	$11,$9,$30
    1328:	316b1fff 	andi	$11,$11,0x1fff
    132c:	25adffff 	addiu	$13,$13,-1
    1330:	000d7080 	sll	$14,$13,0x2
    1334:	004e7021 	addu	$14,$2,$14
    1338:	000b5880 	sll	$11,$11,0x2
    133c:	ad8d0000 	sw	$13,0($12)
    1340:	032b5821 	addu	$11,$25,$11
    1344:	adca0000 	sw	$10,0($14)
    1348:	8d6c0000 	lw	$12,0($11)
    134c:	03c85007 	srav	$10,$8,$30
    1350:	314a1fff 	andi	$10,$10,0x1fff
    1354:	258cffff 	addiu	$12,$12,-1
    1358:	000c6880 	sll	$13,$12,0x2
    135c:	004d6821 	addu	$13,$2,$13
    1360:	000a5080 	sll	$10,$10,0x2
    1364:	ad6c0000 	sw	$12,0($11)
    1368:	032a5021 	addu	$10,$25,$10
    136c:	ada90000 	sw	$9,0($13)
    1370:	8d4b0000 	lw	$11,0($10)
    1374:	03c74807 	srav	$9,$7,$30
    1378:	31291fff 	andi	$9,$9,0x1fff
    137c:	256bffff 	addiu	$11,$11,-1
    1380:	000b6080 	sll	$12,$11,0x2
    1384:	004c6021 	addu	$12,$2,$12
    1388:	00094880 	sll	$9,$9,0x2
    138c:	ad4b0000 	sw	$11,0($10)
    1390:	03294821 	addu	$9,$25,$9
    1394:	ad880000 	sw	$8,0($12)
    1398:	8d2a0000 	lw	$10,0($9)
    139c:	03c64007 	srav	$8,$6,$30
    13a0:	31081fff 	andi	$8,$8,0x1fff
    13a4:	254affff 	addiu	$10,$10,-1
    13a8:	000a5880 	sll	$11,$10,0x2
    13ac:	004b5821 	addu	$11,$2,$11
    13b0:	00084080 	sll	$8,$8,0x2
    13b4:	ad2a0000 	sw	$10,0($9)
    13b8:	03284021 	addu	$8,$25,$8
    13bc:	ad670000 	sw	$7,0($11)
    13c0:	8d090000 	lw	$9,0($8)
    13c4:	03d73807 	srav	$7,$23,$30
    13c8:	30e71fff 	andi	$7,$7,0x1fff
    13cc:	2529ffff 	addiu	$9,$9,-1
    13d0:	00095080 	sll	$10,$9,0x2
    13d4:	004a5021 	addu	$10,$2,$10
    13d8:	00073880 	sll	$7,$7,0x2
    13dc:	ad090000 	sw	$9,0($8)
    13e0:	03273821 	addu	$7,$25,$7
    13e4:	ad460000 	sw	$6,0($10)
    13e8:	8ce80000 	lw	$8,0($7)
    13ec:	8fa90000 	lw	$9,0($29)
    13f0:	8fb50000 	lw	$21,0($29)
    13f4:	2508ffff 	addiu	$8,$8,-1
    13f8:	03c93007 	srav	$6,$9,$30
    13fc:	30c61fff 	andi	$6,$6,0x1fff
    1400:	00084880 	sll	$9,$8,0x2
    1404:	00494821 	addu	$9,$2,$9
    1408:	00063080 	sll	$6,$6,0x2
    140c:	ace80000 	sw	$8,0($7)
    1410:	03263021 	addu	$6,$25,$6
    1414:	ad370000 	sw	$23,0($9)
    1418:	8cc70000 	lw	$7,0($6)
    141c:	2463ffc0 	addiu	$3,$3,-64
    1420:	2484ffc0 	addiu	$4,$4,-64
    1424:	24e7ffff 	addiu	$7,$7,-1
    1428:	00074080 	sll	$8,$7,0x2
    142c:	00484021 	addu	$8,$2,$8
    1430:	acc70000 	sw	$7,0($6)
    1434:	ad150000 	sw	$21,0($8)
    1438:	8fa60008 	lw	$6,8($29)
    143c:	2718ffc0 	addiu	$24,$24,-64
    1440:	1466ff46 	bne	$3,$6,115c <radix_sort+0x540>
    1444:	24a5ffc0 	addiu	$5,$5,-64
    1448:	8f870424 	lw	$7,1060($28)
    144c:	00000000 	nop
    1450:	afa70004 	sw	$7,4($29)
    1454:	8fa60004 	lw	$6,4($29)
    1458:	8fa7000c 	lw	$7,12($29)
    145c:	24c3fffe 	addiu	$3,$6,-2
    1460:	10670012 	beq	$3,$7,14ac <radix_sort+0x890>
    1464:	3c080001 	lui	$8,0x1
    1468:	8f830410 	lw	$3,1040($28)
    146c:	8fa9000c 	lw	$9,12($29)
    1470:	8fb50004 	lw	$21,4($29)
    1474:	24630001 	addiu	$3,$3,1
    1478:	00032080 	sll	$4,$3,0x2
    147c:	25290001 	addiu	$9,$9,1
    1480:	25080000 	addiu	$8,$8,0
    1484:	01042021 	addu	$4,$8,$4
    1488:	af830410 	sw	$3,1040($28)
    148c:	0135182a 	slt	$3,$9,$21
    1490:	8c840000 	lw	$4,0($4)
    1494:	afa9000c 	sw	$9,12($29)
    1498:	1060000c 	beqz	$3,14cc <radix_sort+0x8b0>
    149c:	27de000d 	addiu	$30,$30,13
    14a0:	afa20000 	sw	$2,0($29)
    14a4:	08000334 	j	cd0 <radix_sort+0xb4>
    14a8:	00801021 	move	$2,$4
    14ac:	8fa9000c 	lw	$9,12($29)
    14b0:	8fb50004 	lw	$21,4($29)
    14b4:	8fa40050 	lw	$4,80($29)
    14b8:	25290001 	addiu	$9,$9,1
    14bc:	0135182a 	slt	$3,$9,$21
    14c0:	afa9000c 	sw	$9,12($29)
    14c4:	1460fff6 	bnez	$3,14a0 <radix_sort+0x884>
    14c8:	27de000d 	addiu	$30,$30,13
    14cc:	8fbe004c 	lw	$30,76($29)
    14d0:	8fb70048 	lw	$23,72($29)
    14d4:	8fb60044 	lw	$22,68($29)
    14d8:	8fb50040 	lw	$21,64($29)
    14dc:	8fb4003c 	lw	$20,60($29)
    14e0:	8fb30038 	lw	$19,56($29)
    14e4:	8fb20034 	lw	$18,52($29)
    14e8:	8fb10030 	lw	$17,48($29)
    14ec:	8fb0002c 	lw	$16,44($29)
    14f0:	03e00008 	jr	$31
    14f4:	27bd0050 	addiu	$29,$29,80

000014f8 <main>:
    14f8:	3c020001 	lui	$2,0x1
    14fc:	24420010 	addiu	$2,$2,16
    1500:	3c030004 	lui	$3,0x4
    1504:	00621821 	addu	$3,$3,$2
    1508:	8c63fffc 	lw	$3,-4($3)
    150c:	af820420 	sw	$2,1056($28)
    1510:	3c020005 	lui	$2,0x5
    1514:	27bdff80 	addiu	$29,$29,-128
    1518:	2442000c 	addiu	$2,$2,12
    151c:	24040073 	li	$4,115
    1520:	af820428 	sw	$2,1064($28)
    1524:	afbf007c 	sw	$31,124($29)
    1528:	afa3004c 	sw	$3,76($29)
    152c:	afb00058 	sw	$16,88($29)
    1530:	afbe0078 	sw	$30,120($29)
    1534:	afb70074 	sw	$23,116($29)
    1538:	afb60070 	sw	$22,112($29)
    153c:	afb5006c 	sw	$21,108($29)
    1540:	afb40068 	sw	$20,104($29)
    1544:	afb30064 	sw	$19,100($29)
    1548:	afb20060 	sw	$18,96($29)
    154c:	0c000080 	jal	200 <output_buffer_put>
    1550:	afb1005c 	sw	$17,92($29)
    1554:	0c000080 	jal	200 <output_buffer_put>
    1558:	2404006f 	li	$4,111
    155c:	0c000080 	jal	200 <output_buffer_put>
    1560:	24040072 	li	$4,114
    1564:	0c000080 	jal	200 <output_buffer_put>
    1568:	24040074 	li	$4,116
    156c:	0c000080 	jal	200 <output_buffer_put>
    1570:	24040020 	li	$4,32
    1574:	0c000080 	jal	200 <output_buffer_put>
    1578:	2404006e 	li	$4,110
    157c:	0c000080 	jal	200 <output_buffer_put>
    1580:	2404003d 	li	$4,61
    1584:	8fa4004c 	lw	$4,76($29)
    1588:	0c00009e 	jal	278 <mylib_display_dec>
    158c:	3c100001 	lui	$16,0x1
    1590:	0c000080 	jal	200 <output_buffer_put>
    1594:	2404000a 	li	$4,10
    1598:	0c000080 	jal	200 <output_buffer_put>
    159c:	2404000d 	li	$4,13
    15a0:	0c000080 	jal	200 <output_buffer_put>
    15a4:	2404000a 	li	$4,10
    15a8:	0c000080 	jal	200 <output_buffer_put>
    15ac:	2404000d 	li	$4,13
    15b0:	8e040000 	lw	$4,0($16)
    15b4:	0c000115 	jal	454 <mylib_display_hex>
    15b8:	26100000 	addiu	$16,$16,0
    15bc:	0c000080 	jal	200 <output_buffer_put>
    15c0:	2404000a 	li	$4,10
    15c4:	0c000080 	jal	200 <output_buffer_put>
    15c8:	2404000d 	li	$4,13
    15cc:	0c000080 	jal	200 <output_buffer_put>
    15d0:	2404000a 	li	$4,10
    15d4:	0c000080 	jal	200 <output_buffer_put>
    15d8:	2404000d 	li	$4,13
    15dc:	8e040004 	lw	$4,4($16)
    15e0:	0c000115 	jal	454 <mylib_display_hex>
    15e4:	00000000 	nop
    15e8:	0c000080 	jal	200 <output_buffer_put>
    15ec:	2404000a 	li	$4,10
    15f0:	0c000080 	jal	200 <output_buffer_put>
    15f4:	2404000d 	li	$4,13
    15f8:	0c000080 	jal	200 <output_buffer_put>
    15fc:	2404000a 	li	$4,10
    1600:	0c000080 	jal	200 <output_buffer_put>
    1604:	2404000d 	li	$4,13
    1608:	8e040008 	lw	$4,8($16)
    160c:	0c000115 	jal	454 <mylib_display_hex>
    1610:	00000000 	nop
    1614:	0c000080 	jal	200 <output_buffer_put>
    1618:	2404000a 	li	$4,10
    161c:	0c000080 	jal	200 <output_buffer_put>
    1620:	2404000d 	li	$4,13
    1624:	0c000080 	jal	200 <output_buffer_put>
    1628:	2404000a 	li	$4,10
    162c:	0c000080 	jal	200 <output_buffer_put>
    1630:	2404000d 	li	$4,13
    1634:	8e04000c 	lw	$4,12($16)
    1638:	0c000115 	jal	454 <mylib_display_hex>
    163c:	00000000 	nop
    1640:	0c000080 	jal	200 <output_buffer_put>
    1644:	2404000a 	li	$4,10
    1648:	0c000080 	jal	200 <output_buffer_put>
    164c:	2404000d 	li	$4,13
    1650:	0c000080 	jal	200 <output_buffer_put>
    1654:	2404000a 	li	$4,10
    1658:	0c000080 	jal	200 <output_buffer_put>
    165c:	2404000d 	li	$4,13
    1660:	8fa2004c 	lw	$2,76($29)
    1664:	8f8b8000 	lw	$11,-32768($28)
    1668:	1840013b 	blez	$2,1b58 <main+0x660>
    166c:	01603021 	move	$6,$11
    1670:	8f8a0420 	lw	$10,1056($28)
    1674:	0000f021 	move	$30,$0
    1678:	2565000c 	addiu	$5,$11,12
    167c:	25640014 	addiu	$4,$11,20
    1680:	25630028 	addiu	$3,$11,40
    1684:	0000f821 	move	$31,$0
    1688:	afa00010 	sw	$0,16($29)
    168c:	afa00014 	sw	$0,20($29)
    1690:	afa00018 	sw	$0,24($29)
    1694:	afa0001c 	sw	$0,28($29)
    1698:	afa00020 	sw	$0,32($29)
    169c:	afa00024 	sw	$0,36($29)
    16a0:	afa00028 	sw	$0,40($29)
    16a4:	afa0002c 	sw	$0,44($29)
    16a8:	afa00030 	sw	$0,48($29)
    16ac:	afa00034 	sw	$0,52($29)
    16b0:	afa00038 	sw	$0,56($29)
    16b4:	afa0003c 	sw	$0,60($29)
    16b8:	afa00040 	sw	$0,64($29)
    16bc:	afa00044 	sw	$0,68($29)
    16c0:	00001021 	move	$2,$0
    16c4:	03c0c821 	move	$25,$30
    16c8:	afab0050 	sw	$11,80($29)
    16cc:	304cffff 	andi	$12,$2,0xffff
    16d0:	000c6080 	sll	$12,$12,0x2
    16d4:	25880020 	addiu	$8,$12,32
    16d8:	01484021 	addu	$8,$10,$8
    16dc:	25890010 	addiu	$9,$12,16
    16e0:	8d110004 	lw	$17,4($8)
    16e4:	8d100008 	lw	$16,8($8)
    16e8:	8d0f000c 	lw	$15,12($8)
    16ec:	01494821 	addu	$9,$10,$9
    16f0:	8d080000 	lw	$8,0($8)
    16f4:	8d3e0000 	lw	$30,0($9)
    16f8:	8d340004 	lw	$20,4($9)
    16fc:	8d330008 	lw	$19,8($9)
    1700:	8d32000c 	lw	$18,12($9)
    1704:	afa80048 	sw	$8,72($29)
    1708:	24490004 	addiu	$9,$2,4
    170c:	0134a021 	addu	$20,$9,$20
    1710:	01339821 	addu	$19,$9,$19
    1714:	01329021 	addu	$18,$9,$18
    1718:	013e4821 	addu	$9,$9,$30
    171c:	8fbe0048 	lw	$30,72($29)
    1720:	25870030 	addiu	$7,$12,48
    1724:	014c6021 	addu	$12,$10,$12
    1728:	8d8b0000 	lw	$11,0($12)
    172c:	8d970004 	lw	$23,4($12)
    1730:	8d960008 	lw	$22,8($12)
    1734:	8d95000c 	lw	$21,12($12)
    1738:	01473821 	addu	$7,$10,$7
    173c:	24480008 	addiu	$8,$2,8
    1740:	8cf80000 	lw	$24,0($7)
    1744:	8cee0004 	lw	$14,4($7)
    1748:	8ced0008 	lw	$13,8($7)
    174c:	8cec000c 	lw	$12,12($7)
    1750:	01118821 	addu	$17,$8,$17
    1754:	01108021 	addu	$16,$8,$16
    1758:	010f7821 	addu	$15,$8,$15
    175c:	011e4021 	addu	$8,$8,$30
    1760:	8fbe004c 	lw	$30,76($29)
    1764:	2447000c 	addiu	$7,$2,12
    1768:	004b5821 	addu	$11,$2,$11
    176c:	0057b821 	addu	$23,$2,$23
    1770:	0056b021 	addu	$22,$2,$22
    1774:	0055a821 	addu	$21,$2,$21
    1778:	24420010 	addiu	$2,$2,16
    177c:	accb0000 	sw	$11,0($6)
    1780:	00ee7021 	addu	$14,$7,$14
    1784:	00ed6821 	addu	$13,$7,$13
    1788:	00ec6021 	addu	$12,$7,$12
    178c:	032bc825 	or	$25,$25,$11
    1790:	00f83821 	addu	$7,$7,$24
    1794:	8fab0010 	lw	$11,16($29)
    1798:	005ec02a 	slt	$24,$2,$30
    179c:	8fbe0014 	lw	$30,20($29)
    17a0:	26d60002 	addiu	$22,$22,2
    17a4:	26b50003 	addiu	$21,$21,3
    17a8:	01765825 	or	$11,$11,$22
    17ac:	03d5f025 	or	$30,$30,$21
    17b0:	afab0010 	sw	$11,16($29)
    17b4:	afbe0014 	sw	$30,20($29)
    17b8:	8fab0018 	lw	$11,24($29)
    17bc:	8fbe001c 	lw	$30,28($29)
    17c0:	26940001 	addiu	$20,$20,1
    17c4:	01695825 	or	$11,$11,$9
    17c8:	26f70001 	addiu	$23,$23,1
    17cc:	26730002 	addiu	$19,$19,2
    17d0:	03d4f025 	or	$30,$30,$20
    17d4:	ac97fff0 	sw	$23,-16($4)
    17d8:	afab0018 	sw	$11,24($29)
    17dc:	ac76ffe0 	sw	$22,-32($3)
    17e0:	afbe001c 	sw	$30,28($29)
    17e4:	acb50000 	sw	$21,0($5)
    17e8:	acc90010 	sw	$9,16($6)
    17ec:	ac940000 	sw	$20,0($4)
    17f0:	ac73fff0 	sw	$19,-16($3)
    17f4:	8fa90020 	lw	$9,32($29)
    17f8:	8fbe0028 	lw	$30,40($29)
    17fc:	26520003 	addiu	$18,$18,3
    1800:	01334825 	or	$9,$9,$19
    1804:	acb20010 	sw	$18,16($5)
    1808:	03c8f025 	or	$30,$30,$8
    180c:	acc80020 	sw	$8,32($6)
    1810:	8fab0024 	lw	$11,36($29)
    1814:	8fa8002c 	lw	$8,44($29)
    1818:	afa90020 	sw	$9,32($29)
    181c:	8fa90030 	lw	$9,48($29)
    1820:	afbe0028 	sw	$30,40($29)
    1824:	8fbe0038 	lw	$30,56($29)
    1828:	26310001 	addiu	$17,$17,1
    182c:	26100002 	addiu	$16,$16,2
    1830:	25ef0003 	addiu	$15,$15,3
    1834:	01725825 	or	$11,$11,$18
    1838:	01114025 	or	$8,$8,$17
    183c:	01304825 	or	$9,$9,$16
    1840:	ac910010 	sw	$17,16($4)
    1844:	03c7f025 	or	$30,$30,$7
    1848:	ac700000 	sw	$16,0($3)
    184c:	afab0024 	sw	$11,36($29)
    1850:	acaf0020 	sw	$15,32($5)
    1854:	8fab0034 	lw	$11,52($29)
    1858:	acc70030 	sw	$7,48($6)
    185c:	afa8002c 	sw	$8,44($29)
    1860:	8fa7003c 	lw	$7,60($29)
    1864:	8fa80040 	lw	$8,64($29)
    1868:	afa90030 	sw	$9,48($29)
    186c:	8fa90044 	lw	$9,68($29)
    1870:	25ce0001 	addiu	$14,$14,1
    1874:	25ad0002 	addiu	$13,$13,2
    1878:	258c0003 	addiu	$12,$12,3
    187c:	016f5825 	or	$11,$11,$15
    1880:	00ee3825 	or	$7,$7,$14
    1884:	010d4025 	or	$8,$8,$13
    1888:	012c4825 	or	$9,$9,$12
    188c:	ac8e0020 	sw	$14,32($4)
    1890:	03f7f825 	or	$31,$31,$23
    1894:	ac6d0010 	sw	$13,16($3)
    1898:	afab0034 	sw	$11,52($29)
    189c:	acac0030 	sw	$12,48($5)
    18a0:	afbe0038 	sw	$30,56($29)
    18a4:	afa7003c 	sw	$7,60($29)
    18a8:	afa80040 	sw	$8,64($29)
    18ac:	afa90044 	sw	$9,68($29)
    18b0:	24c60040 	addiu	$6,$6,64
    18b4:	24a50040 	addiu	$5,$5,64
    18b8:	24840040 	addiu	$4,$4,64
    18bc:	1700ff83 	bnez	$24,16cc <main+0x1d4>
    18c0:	24630040 	addiu	$3,$3,64
    18c4:	8fab0050 	lw	$11,80($29)
    18c8:	0320f021 	move	$30,$25
    18cc:	8fa30040 	lw	$3,64($29)
    18d0:	8fa40044 	lw	$4,68($29)
    18d4:	8fa7003c 	lw	$7,60($29)
    18d8:	8fa80038 	lw	$8,56($29)
    18dc:	00641025 	or	$2,$3,$4
    18e0:	8fa90034 	lw	$9,52($29)
    18e4:	00471025 	or	$2,$2,$7
    18e8:	8fa30030 	lw	$3,48($29)
    18ec:	00481025 	or	$2,$2,$8
    18f0:	8fa4002c 	lw	$4,44($29)
    18f4:	00491025 	or	$2,$2,$9
    18f8:	8fa70028 	lw	$7,40($29)
    18fc:	00431025 	or	$2,$2,$3
    1900:	8fa80024 	lw	$8,36($29)
    1904:	00441025 	or	$2,$2,$4
    1908:	8fa90020 	lw	$9,32($29)
    190c:	00471025 	or	$2,$2,$7
    1910:	8fa3001c 	lw	$3,28($29)
    1914:	00481025 	or	$2,$2,$8
    1918:	8fa40018 	lw	$4,24($29)
    191c:	00491025 	or	$2,$2,$9
    1920:	8fa70014 	lw	$7,20($29)
    1924:	00431025 	or	$2,$2,$3
    1928:	8fa80010 	lw	$8,16($29)
    192c:	00441025 	or	$2,$2,$4
    1930:	00471025 	or	$2,$2,$7
    1934:	00481025 	or	$2,$2,$8
    1938:	005f1025 	or	$2,$2,$31
    193c:	005e1025 	or	$2,$2,$30
    1940:	3c03fc00 	lui	$3,0xfc00
    1944:	00431024 	and	$2,$2,$3
    1948:	14400081 	bnez	$2,1b50 <main+0x658>
    194c:	24020003 	li	$2,3
    1950:	24020002 	li	$2,2
    1954:	af820424 	sw	$2,1060($28)
    1958:	00008021 	move	$16,$0
    195c:	0800065b 	j	196c <main+0x474>
    1960:	24140180 	li	$20,384
    1964:	8f8b8000 	lw	$11,-32768($28)
    1968:	00000000 	nop
    196c:	01701021 	addu	$2,$11,$16
    1970:	8c440000 	lw	$4,0($2)
    1974:	26030010 	addiu	$3,$16,16
    1978:	8c5e0004 	lw	$30,4($2)
    197c:	01635821 	addu	$11,$11,$3
    1980:	8c570008 	lw	$23,8($2)
    1984:	8c56000c 	lw	$22,12($2)
    1988:	8d750000 	lw	$21,0($11)
    198c:	8d730004 	lw	$19,4($11)
    1990:	8d720008 	lw	$18,8($11)
    1994:	8d71000c 	lw	$17,12($11)
    1998:	0c00009e 	jal	278 <mylib_display_dec>
    199c:	26100020 	addiu	$16,$16,32
    19a0:	0c000080 	jal	200 <output_buffer_put>
    19a4:	24040020 	li	$4,32
    19a8:	0c00009e 	jal	278 <mylib_display_dec>
    19ac:	03c02021 	move	$4,$30
    19b0:	0c000080 	jal	200 <output_buffer_put>
    19b4:	24040020 	li	$4,32
    19b8:	0c00009e 	jal	278 <mylib_display_dec>
    19bc:	02e02021 	move	$4,$23
    19c0:	0c000080 	jal	200 <output_buffer_put>
    19c4:	24040020 	li	$4,32
    19c8:	0c00009e 	jal	278 <mylib_display_dec>
    19cc:	02c02021 	move	$4,$22
    19d0:	0c000080 	jal	200 <output_buffer_put>
    19d4:	24040020 	li	$4,32
    19d8:	0c00009e 	jal	278 <mylib_display_dec>
    19dc:	02a02021 	move	$4,$21
    19e0:	0c000080 	jal	200 <output_buffer_put>
    19e4:	24040020 	li	$4,32
    19e8:	0c00009e 	jal	278 <mylib_display_dec>
    19ec:	02602021 	move	$4,$19
    19f0:	0c000080 	jal	200 <output_buffer_put>
    19f4:	24040020 	li	$4,32
    19f8:	0c00009e 	jal	278 <mylib_display_dec>
    19fc:	02402021 	move	$4,$18
    1a00:	0c000080 	jal	200 <output_buffer_put>
    1a04:	24040020 	li	$4,32
    1a08:	0c00009e 	jal	278 <mylib_display_dec>
    1a0c:	02202021 	move	$4,$17
    1a10:	0c000080 	jal	200 <output_buffer_put>
    1a14:	24040020 	li	$4,32
    1a18:	1614ffd2 	bne	$16,$20,1964 <main+0x46c>
    1a1c:	00000000 	nop
    1a20:	8f828000 	lw	$2,-32768($28)
    1a24:	00000000 	nop
    1a28:	8c440180 	lw	$4,384($2)
    1a2c:	8c520184 	lw	$18,388($2)
    1a30:	8c510188 	lw	$17,392($2)
    1a34:	8c50018c 	lw	$16,396($2)
    1a38:	0c00009e 	jal	278 <mylib_display_dec>
    1a3c:	00000000 	nop
    1a40:	0c000080 	jal	200 <output_buffer_put>
    1a44:	24040020 	li	$4,32
    1a48:	0c00009e 	jal	278 <mylib_display_dec>
    1a4c:	02402021 	move	$4,$18
    1a50:	0c000080 	jal	200 <output_buffer_put>
    1a54:	24040020 	li	$4,32
    1a58:	0c00009e 	jal	278 <mylib_display_dec>
    1a5c:	02202021 	move	$4,$17
    1a60:	0c000080 	jal	200 <output_buffer_put>
    1a64:	24040020 	li	$4,32
    1a68:	0c00009e 	jal	278 <mylib_display_dec>
    1a6c:	02002021 	move	$4,$16
    1a70:	0c000080 	jal	200 <output_buffer_put>
    1a74:	24040020 	li	$4,32
    1a78:	0c000080 	jal	200 <output_buffer_put>
    1a7c:	2404000a 	li	$4,10
    1a80:	0c000080 	jal	200 <output_buffer_put>
    1a84:	2404000d 	li	$4,13
    1a88:	8fa5004c 	lw	$5,76($29)
    1a8c:	8f848000 	lw	$4,-32768($28)
    1a90:	0c000307 	jal	c1c <radix_sort>
    1a94:	00000000 	nop
    1a98:	0c000080 	jal	200 <output_buffer_put>
    1a9c:	2404000a 	li	$4,10
    1aa0:	0c000080 	jal	200 <output_buffer_put>
    1aa4:	2404000d 	li	$4,13
    1aa8:	8fa9004c 	lw	$9,76($29)
    1aac:	00000000 	nop
    1ab0:	19200014 	blez	$9,1b04 <main+0x60c>
    1ab4:	3c0251eb 	lui	$2,0x51eb
    1ab8:	3442851f 	ori	$2,$2,0x851f
    1abc:	01220018 	mult	$9,$2
    1ac0:	00098fc3 	sra	$17,$9,0x1f
    1ac4:	00008021 	move	$16,$0
    1ac8:	01209021 	move	$18,$9
    1acc:	00001010 	mfhi	$2
    1ad0:	00021143 	sra	$2,$2,0x5
    1ad4:	00518823 	subu	$17,$2,$17
    1ad8:	8f838000 	lw	$3,-32768($28)
    1adc:	00101080 	sll	$2,$16,0x2
    1ae0:	00621021 	addu	$2,$3,$2
    1ae4:	8c440000 	lw	$4,0($2)
    1ae8:	0c00009e 	jal	278 <mylib_display_dec>
    1aec:	02118021 	addu	$16,$16,$17
    1af0:	0c000080 	jal	200 <output_buffer_put>
    1af4:	24040020 	li	$4,32
    1af8:	0212102a 	slt	$2,$16,$18
    1afc:	1440fff6 	bnez	$2,1ad8 <main+0x5e0>
    1b00:	00000000 	nop
    1b04:	0c000080 	jal	200 <output_buffer_put>
    1b08:	2404000a 	li	$4,10
    1b0c:	0c000080 	jal	200 <output_buffer_put>
    1b10:	2404000d 	li	$4,13
    1b14:	0c00018a 	jal	628 <mylib_finalize>
    1b18:	00000000 	nop
    1b1c:	8fbf007c 	lw	$31,124($29)
    1b20:	8fbe0078 	lw	$30,120($29)
    1b24:	8fb70074 	lw	$23,116($29)
    1b28:	8fb60070 	lw	$22,112($29)
    1b2c:	8fb5006c 	lw	$21,108($29)
    1b30:	8fb40068 	lw	$20,104($29)
    1b34:	8fb30064 	lw	$19,100($29)
    1b38:	8fb20060 	lw	$18,96($29)
    1b3c:	8fb1005c 	lw	$17,92($29)
    1b40:	8fb00058 	lw	$16,88($29)
    1b44:	00001021 	move	$2,$0
    1b48:	03e00008 	jr	$31
    1b4c:	27bd0080 	addiu	$29,$29,128
    1b50:	08000656 	j	1958 <main+0x460>
    1b54:	af820424 	sw	$2,1060($28)
    1b58:	0000f021 	move	$30,$0
    1b5c:	0000f821 	move	$31,$0
    1b60:	afa00010 	sw	$0,16($29)
    1b64:	afa00014 	sw	$0,20($29)
    1b68:	afa00018 	sw	$0,24($29)
    1b6c:	afa0001c 	sw	$0,28($29)
    1b70:	afa00020 	sw	$0,32($29)
    1b74:	afa00024 	sw	$0,36($29)
    1b78:	afa00028 	sw	$0,40($29)
    1b7c:	afa0002c 	sw	$0,44($29)
    1b80:	afa00030 	sw	$0,48($29)
    1b84:	afa00034 	sw	$0,52($29)
    1b88:	afa00038 	sw	$0,56($29)
    1b8c:	afa0003c 	sw	$0,60($29)
    1b90:	afa00040 	sw	$0,64($29)
    1b94:	08000633 	j	18cc <main+0x3d4>
    1b98:	afa00044 	sw	$0,68($29)
